target datalayout = "e-m:e-p270:32:32-p271:32:32-p272:64:64-i64:64-i128:128-f80:128-n8:16:32:64-S128"
target triple = "x86_64-pc-linux-gnu"

%struct.nghttp2_session = type { %struct.nghttp2_map, %struct.nghttp2_stream, %struct.nghttp2_outbound_queue, %struct.nghttp2_outbound_queue, %struct.nghttp2_outbound_queue, [8 x %struct.anon], %struct.nghttp2_active_outbound_item, %struct.nghttp2_inbound_frame, %struct.nghttp2_hd_deflater, %struct.nghttp2_hd_inflater, %struct.nghttp2_session_callbacks, %struct.nghttp2_mem, ptr, ptr, ptr, ptr, ptr, ptr, i64, i64, i64, i64, i64, i64, i64, i64, i64, i64, i64, i64, i32, i32, i32, i32, i32, i32, i32, i32, i32, i32, i32, i32, i8, %struct.nghttp2_settings_storage, %struct.nghttp2_settings_storage, i32, i32, i32, i8, i8, i8, i8, i8, i8, i8, [32 x i8] }
%struct.nghttp2_map = type { ptr, ptr, i64, i32, i32 }
%struct.nghttp2_stream = type { %struct.nghttp2_pq_entry, %struct.nghttp2_pq, i64, i64, i64, i64, i64, i64, ptr, ptr, ptr, ptr, ptr, ptr, ptr, ptr, i64, i32, i32, i32, i32, i32, i32, i32, i32, i32, i32, i16, i32, i8, i8, i8, i8, i8, i8 }
%struct.nghttp2_pq_entry = type { i64 }
%struct.nghttp2_pq = type { ptr, ptr, i64, i64, ptr }
%struct.nghttp2_outbound_queue = type { ptr, ptr, i64 }
%struct.anon = type { %struct.nghttp2_pq }
%struct.nghttp2_active_outbound_item = type { ptr, %struct.nghttp2_bufs, i32 }
%struct.nghttp2_bufs = type { ptr, ptr, ptr, i64, i64, i64, i64, i64 }
%struct.nghttp2_inbound_frame = type { %union.nghttp2_frame, %union.nghttp2_ext_frame_payload, ptr, %struct.nghttp2_buf, %struct.nghttp2_buf, ptr, i64, i64, i64, i64, i32, [32 x i8] }
%union.nghttp2_frame = type { %struct.nghttp2_headers }
%struct.nghttp2_headers = type { %struct.nghttp2_frame_hd, i64, %struct.nghttp2_priority_spec, ptr, i64, i32 }
%struct.nghttp2_frame_hd = type { i64, i32, i8, i8, i8 }
%struct.nghttp2_priority_spec = type { i32, i32, i8 }
%union.nghttp2_ext_frame_payload = type { %struct.nghttp2_ext_altsvc }
%struct.nghttp2_ext_altsvc = type { ptr, i64, ptr, i64 }
%struct.nghttp2_buf = type { ptr, ptr, ptr, ptr, ptr }
%struct.nghttp2_hd_deflater = type { %struct.nghttp2_hd_context, %struct.nghttp2_hd_map, i64, i64, i8 }
%struct.nghttp2_hd_context = type { %struct.nghttp2_hd_ringbuf, ptr, i64, i64, i32, i8 }
%struct.nghttp2_hd_ringbuf = type { ptr, i64, i64, i64 }
%struct.nghttp2_hd_map = type { [128 x ptr] }
%struct.nghttp2_hd_inflater = type { %struct.nghttp2_hd_context, %struct.nghttp2_hd_huff_decode_context, %struct.nghttp2_buf, %struct.nghttp2_buf, ptr, ptr, ptr, ptr, i64, i64, i64, i64, i64, i32, i32, i8, i8, i8 }
%struct.nghttp2_hd_huff_decode_context = type { i16 }
%struct.nghttp2_session_callbacks = type { ptr, ptr, ptr, ptr, ptr, ptr, ptr, ptr, ptr, ptr, ptr, ptr, ptr, ptr, ptr, ptr, ptr, ptr, ptr, ptr, ptr, ptr, ptr }
%struct.nghttp2_mem = type { ptr, ptr, ptr, ptr, ptr }
%struct.nghttp2_settings_storage = type { i32, i32, i32, i32, i32, i32, i32, i32 }
%struct.nghttp2_outbound_item = type { %union.nghttp2_frame, %union.nghttp2_ext_frame_payload, %union.nghttp2_aux_data, i64, ptr, i8 }
%union.nghttp2_aux_data = type { %struct.nghttp2_headers_aux_data }
%struct.nghttp2_headers_aux_data = type { %struct.nghttp2_data_provider, ptr, i32, i8 }
%struct.nghttp2_data_provider = type { %union.nghttp2_data_source, ptr }
%union.nghttp2_data_source = type { ptr }
%struct.nghttp2_ping = type { %struct.nghttp2_frame_hd, [8 x i8] }

@.str.32 = private unnamed_addr constant [21 x i8] c"PING: stream_id != 0\00", align 1

; Function Attrs: nounwind uwtable
define internal i32 @session_terminate_session(ptr noundef %0, i32 noundef %1, i32 noundef %2, ptr noundef %3) #0 {
  %5 = alloca i32, align 4
  %6 = alloca ptr, align 8
  %7 = alloca i32, align 4
  %8 = alloca i32, align 4
  %9 = alloca ptr, align 8
  %10 = alloca i32, align 4
  %11 = alloca ptr, align 8
  %12 = alloca i64, align 8
  %13 = alloca i32, align 4
  store ptr %0, ptr %6, align 8, !tbaa !8
  store i32 %1, ptr %7, align 4, !tbaa !4
  store i32 %2, ptr %8, align 4, !tbaa !4
  store ptr %3, ptr %9, align 8, !tbaa !41
  call void @llvm.lifetime.start.p0(i64 4, ptr %10) #9
  call void @llvm.lifetime.start.p0(i64 8, ptr %11) #9
  call void @llvm.lifetime.start.p0(i64 8, ptr %12) #9
  %14 = load ptr, ptr %6, align 8, !tbaa !8
  %15 = getelementptr inbounds nuw %struct.nghttp2_session, ptr %14, i32 0, i32 53
  %16 = load i8, ptr %15, align 1, !tbaa !42
  %17 = zext i8 %16 to i32
  %18 = and i32 %17, 1
  %19 = icmp ne i32 %18, 0
  br i1 %19, label %20, label %21

20:                                               ; preds = %4
  store i32 0, ptr %5, align 4
  store i32 1, ptr %13, align 4
  br label %50

21:                                               ; preds = %4
  %22 = load ptr, ptr %6, align 8, !tbaa !8
  %23 = getelementptr inbounds nuw %struct.nghttp2_session, ptr %22, i32 0, i32 7
  %24 = getelementptr inbounds nuw %struct.nghttp2_inbound_frame, ptr %23, i32 0, i32 10
  store i32 15, ptr %24, align 8, !tbaa !43
  %25 = load ptr, ptr %9, align 8, !tbaa !41
  %26 = icmp eq ptr %25, null
  br i1 %26, label %27, label %28

27:                                               ; preds = %21
  store ptr null, ptr %11, align 8, !tbaa !41
  store i64 0, ptr %12, align 8, !tbaa !44
  br label %32

28:                                               ; preds = %21
  %29 = load ptr, ptr %9, align 8, !tbaa !41
  store ptr %29, ptr %11, align 8, !tbaa !41
  %30 = load ptr, ptr %9, align 8, !tbaa !41
  %31 = call i64 @strlen(ptr noundef %30) #10
  store i64 %31, ptr %12, align 8, !tbaa !44
  br label %32

32:                                               ; preds = %28, %27
  %33 = load ptr, ptr %6, align 8, !tbaa !8
  %34 = load i32, ptr %7, align 4, !tbaa !4
  %35 = load i32, ptr %8, align 4, !tbaa !4
  %36 = load ptr, ptr %11, align 8, !tbaa !41
  %37 = load i64, ptr %12, align 8, !tbaa !44
  %38 = call i32 @nghttp2_session_add_goaway(ptr noundef %33, i32 noundef %34, i32 noundef %35, ptr noundef %36, i64 noundef %37, i8 noundef zeroext 1)
  store i32 %38, ptr %10, align 4, !tbaa !4
  %39 = load i32, ptr %10, align 4, !tbaa !4
  %40 = icmp ne i32 %39, 0
  br i1 %40, label %41, label %43

41:                                               ; preds = %32
  %42 = load i32, ptr %10, align 4, !tbaa !4
  store i32 %42, ptr %5, align 4
  store i32 1, ptr %13, align 4
  br label %50

43:                                               ; preds = %32
  %44 = load ptr, ptr %6, align 8, !tbaa !8
  %45 = getelementptr inbounds nuw %struct.nghttp2_session, ptr %44, i32 0, i32 53
  %46 = load i8, ptr %45, align 1, !tbaa !42
  %47 = zext i8 %46 to i32
  %48 = or i32 %47, 1
  %49 = trunc i32 %48 to i8
  store i8 %49, ptr %45, align 1, !tbaa !42
  store i32 0, ptr %5, align 4
  store i32 1, ptr %13, align 4
  br label %50

50:                                               ; preds = %43, %41, %20
  call void @llvm.lifetime.end.p0(i64 8, ptr %12) #9
  call void @llvm.lifetime.end.p0(i64 8, ptr %11) #9
  call void @llvm.lifetime.end.p0(i64 4, ptr %10) #9
  %51 = load i32, ptr %5, align 4
  ret i32 %51
}

; Function Attrs: nounwind uwtable
define dso_local i32 @nghttp2_session_terminate_session_with_reason(ptr noundef %0, i32 noundef %1, ptr noundef %2) #0 {
  %4 = alloca ptr, align 8
  %5 = alloca i32, align 4
  %6 = alloca ptr, align 8
  store ptr %0, ptr %4, align 8, !tbaa !8
  store i32 %1, ptr %5, align 4, !tbaa !4
  store ptr %2, ptr %6, align 8, !tbaa !41
  %7 = load ptr, ptr %4, align 8, !tbaa !8
  %8 = load ptr, ptr %4, align 8, !tbaa !8
  %9 = getelementptr inbounds nuw %struct.nghttp2_session, ptr %8, i32 0, i32 33
  %10 = load i32, ptr %9, align 4, !tbaa !11
  %11 = load i32, ptr %5, align 4, !tbaa !4
  %12 = load ptr, ptr %6, align 8, !tbaa !41
  %13 = call i32 @session_terminate_session(ptr noundef %7, i32 noundef %10, i32 noundef %11, ptr noundef %12)
  ret i32 %13
}

; Function Attrs: nounwind uwtable
define internal i32 @get_error_code_from_lib_error_code(i32 noundef %0) #0 {
  %2 = alloca i32, align 4
  %3 = alloca i32, align 4
  store i32 %0, ptr %3, align 4, !tbaa !4
  %4 = load i32, ptr %3, align 4, !tbaa !4
  switch i32 %4, label %11 [
    i32 -510, label %5
    i32 -523, label %6
    i32 -522, label %7
    i32 -524, label %8
    i32 -533, label %9
    i32 -505, label %10
    i32 -531, label %10
    i32 -532, label %10
  ]

5:                                                ; preds = %1
  store i32 5, ptr %2, align 4
  br label %12

6:                                                ; preds = %1
  store i32 9, ptr %2, align 4
  br label %12

7:                                                ; preds = %1
  store i32 6, ptr %2, align 4
  br label %12

8:                                                ; preds = %1
  store i32 3, ptr %2, align 4
  br label %12

9:                                                ; preds = %1
  store i32 7, ptr %2, align 4
  br label %12

10:                                               ; preds = %1, %1, %1
  store i32 1, ptr %2, align 4
  br label %12

11:                                               ; preds = %1
  store i32 2, ptr %2, align 4
  br label %12

12:                                               ; preds = %11, %10, %9, %8, %7, %6, %5
  %13 = load i32, ptr %2, align 4
  ret i32 %13
}

; Function Attrs: nounwind uwtable
define internal i32 @session_call_on_frame_received(ptr noundef %0, ptr noundef %1) #0 {
  %3 = alloca i32, align 4
  %4 = alloca ptr, align 8
  %5 = alloca ptr, align 8
  %6 = alloca i32, align 4
  %7 = alloca i32, align 4
  store ptr %0, ptr %4, align 8, !tbaa !8
  store ptr %1, ptr %5, align 8, !tbaa !53
  call void @llvm.lifetime.start.p0(i64 4, ptr %6) #9
  %8 = load ptr, ptr %4, align 8, !tbaa !8
  %9 = getelementptr inbounds nuw %struct.nghttp2_session, ptr %8, i32 0, i32 10
  %10 = getelementptr inbounds nuw %struct.nghttp2_session_callbacks, ptr %9, i32 0, i32 2
  %11 = load ptr, ptr %10, align 8, !tbaa !185
  %12 = icmp ne ptr %11, null
  br i1 %12, label %13, label %28

13:                                               ; preds = %2
  %14 = load ptr, ptr %4, align 8, !tbaa !8
  %15 = getelementptr inbounds nuw %struct.nghttp2_session, ptr %14, i32 0, i32 10
  %16 = getelementptr inbounds nuw %struct.nghttp2_session_callbacks, ptr %15, i32 0, i32 2
  %17 = load ptr, ptr %16, align 8, !tbaa !185
  %18 = load ptr, ptr %4, align 8, !tbaa !8
  %19 = load ptr, ptr %5, align 8, !tbaa !53
  %20 = load ptr, ptr %4, align 8, !tbaa !8
  %21 = getelementptr inbounds nuw %struct.nghttp2_session, ptr %20, i32 0, i32 12
  %22 = load ptr, ptr %21, align 8, !tbaa !92
  %23 = call i32 %17(ptr noundef %18, ptr noundef %19, ptr noundef %22)
  store i32 %23, ptr %6, align 4, !tbaa !4
  %24 = load i32, ptr %6, align 4, !tbaa !4
  %25 = icmp ne i32 %24, 0
  br i1 %25, label %26, label %27

26:                                               ; preds = %13
  store i32 -902, ptr %3, align 4
  store i32 1, ptr %7, align 4
  br label %29

27:                                               ; preds = %13
  br label %28

28:                                               ; preds = %27, %2
  store i32 0, ptr %3, align 4
  store i32 1, ptr %7, align 4
  br label %29

29:                                               ; preds = %28, %26
  call void @llvm.lifetime.end.p0(i64 4, ptr %6) #9
  %30 = load i32, ptr %3, align 4
  ret i32 %30
}

; Function Attrs: nounwind uwtable
define dso_local i32 @nghttp2_session_add_ping(ptr noundef %0, i8 noundef zeroext %1, ptr noundef %2) #0 {
  %4 = alloca i32, align 4
  %5 = alloca ptr, align 8
  %6 = alloca i8, align 1
  %7 = alloca ptr, align 8
  %8 = alloca i32, align 4
  %9 = alloca ptr, align 8
  %10 = alloca ptr, align 8
  %11 = alloca ptr, align 8
  %12 = alloca i32, align 4
  store ptr %0, ptr %5, align 8, !tbaa !8
  store i8 %1, ptr %6, align 1, !tbaa !115
  store ptr %2, ptr %7, align 8, !tbaa !41
  call void @llvm.lifetime.start.p0(i64 4, ptr %8) #9
  call void @llvm.lifetime.start.p0(i64 8, ptr %9) #9
  call void @llvm.lifetime.start.p0(i64 8, ptr %10) #9
  call void @llvm.lifetime.start.p0(i64 8, ptr %11) #9
  %13 = load ptr, ptr %5, align 8, !tbaa !8
  %14 = getelementptr inbounds nuw %struct.nghttp2_session, ptr %13, i32 0, i32 11
  store ptr %14, ptr %11, align 8, !tbaa !53
  %15 = load i8, ptr %6, align 1, !tbaa !115
  %16 = zext i8 %15 to i32
  %17 = and i32 %16, 1
  %18 = icmp ne i32 %17, 0
  br i1 %18, label %19, label %28

19:                                               ; preds = %3
  %20 = load ptr, ptr %5, align 8, !tbaa !8
  %21 = getelementptr inbounds nuw %struct.nghttp2_session, ptr %20, i32 0, i32 26
  %22 = load i64, ptr %21, align 8, !tbaa !209
  %23 = load ptr, ptr %5, align 8, !tbaa !8
  %24 = getelementptr inbounds nuw %struct.nghttp2_session, ptr %23, i32 0, i32 27
  %25 = load i64, ptr %24, align 8, !tbaa !71
  %26 = icmp uge i64 %22, %25
  br i1 %26, label %27, label %28

27:                                               ; preds = %19
  store i32 -904, ptr %4, align 4
  store i32 1, ptr %12, align 4
  br label %62

28:                                               ; preds = %19, %3
  %29 = load ptr, ptr %11, align 8, !tbaa !53
  %30 = call ptr @nghttp2_mem_malloc(ptr noundef %29, i64 noundef 152)
  store ptr %30, ptr %9, align 8, !tbaa !106
  %31 = load ptr, ptr %9, align 8, !tbaa !106
  %32 = icmp eq ptr %31, null
  br i1 %32, label %33, label %34

33:                                               ; preds = %28
  store i32 -901, ptr %4, align 4
  store i32 1, ptr %12, align 4
  br label %62

34:                                               ; preds = %28
  %35 = load ptr, ptr %9, align 8, !tbaa !106
  call void @nghttp2_outbound_item_init(ptr noundef %35)
  %36 = load ptr, ptr %9, align 8, !tbaa !106
  %37 = getelementptr inbounds nuw %struct.nghttp2_outbound_item, ptr %36, i32 0, i32 0
  store ptr %37, ptr %10, align 8, !tbaa !53
  %38 = load ptr, ptr %10, align 8, !tbaa !53
  %39 = load i8, ptr %6, align 1, !tbaa !115
  %40 = load ptr, ptr %7, align 8, !tbaa !41
  call void @nghttp2_frame_ping_init(ptr noundef %38, i8 noundef zeroext %39, ptr noundef %40)
  %41 = load ptr, ptr %5, align 8, !tbaa !8
  %42 = load ptr, ptr %9, align 8, !tbaa !106
  %43 = call i32 @nghttp2_session_add_item(ptr noundef %41, ptr noundef %42)
  store i32 %43, ptr %8, align 4, !tbaa !4
  %44 = load i32, ptr %8, align 4, !tbaa !4
  %45 = icmp ne i32 %44, 0
  br i1 %45, label %46, label %51

46:                                               ; preds = %34
  %47 = load ptr, ptr %10, align 8, !tbaa !53
  call void @nghttp2_frame_ping_free(ptr noundef %47)
  %48 = load ptr, ptr %11, align 8, !tbaa !53
  %49 = load ptr, ptr %9, align 8, !tbaa !106
  call void @nghttp2_mem_free(ptr noundef %48, ptr noundef %49)
  %50 = load i32, ptr %8, align 4, !tbaa !4
  store i32 %50, ptr %4, align 4
  store i32 1, ptr %12, align 4
  br label %62

51:                                               ; preds = %34
  %52 = load i8, ptr %6, align 1, !tbaa !115
  %53 = zext i8 %52 to i32
  %54 = and i32 %53, 1
  %55 = icmp ne i32 %54, 0
  br i1 %55, label %56, label %61

56:                                               ; preds = %51
  %57 = load ptr, ptr %5, align 8, !tbaa !8
  %58 = getelementptr inbounds nuw %struct.nghttp2_session, ptr %57, i32 0, i32 26
  %59 = load i64, ptr %58, align 8, !tbaa !209
  %60 = add i64 %59, 1
  store i64 %60, ptr %58, align 8, !tbaa !209
  br label %61

61:                                               ; preds = %56, %51
  store i32 0, ptr %4, align 4
  store i32 1, ptr %12, align 4
  br label %62

62:                                               ; preds = %61, %46, %33, %27
  call void @llvm.lifetime.end.p0(i64 8, ptr %11) #9
  call void @llvm.lifetime.end.p0(i64 8, ptr %10) #9
  call void @llvm.lifetime.end.p0(i64 8, ptr %9) #9
  call void @llvm.lifetime.end.p0(i64 4, ptr %8) #9
  %63 = load i32, ptr %4, align 4
  ret i32 %63
}

; Function Attrs: nounwind uwtable
define internal i32 @session_handle_invalid_connection(ptr noundef %0, ptr noundef %1, i32 noundef %2, ptr noundef %3) #0 {
  %5 = alloca i32, align 4
  %6 = alloca ptr, align 8
  %7 = alloca ptr, align 8
  %8 = alloca i32, align 4
  %9 = alloca ptr, align 8
  store ptr %0, ptr %6, align 8, !tbaa !8
  store ptr %1, ptr %7, align 8, !tbaa !53
  store i32 %2, ptr %8, align 4, !tbaa !4
  store ptr %3, ptr %9, align 8, !tbaa !41
  %10 = load ptr, ptr %6, align 8, !tbaa !8
  %11 = getelementptr inbounds nuw %struct.nghttp2_session, ptr %10, i32 0, i32 10
  %12 = getelementptr inbounds nuw %struct.nghttp2_session_callbacks, ptr %11, i32 0, i32 3
  %13 = load ptr, ptr %12, align 8, !tbaa !184
  %14 = icmp ne ptr %13, null
  br i1 %14, label %15, label %30

15:                                               ; preds = %4
  %16 = load ptr, ptr %6, align 8, !tbaa !8
  %17 = getelementptr inbounds nuw %struct.nghttp2_session, ptr %16, i32 0, i32 10
  %18 = getelementptr inbounds nuw %struct.nghttp2_session_callbacks, ptr %17, i32 0, i32 3
  %19 = load ptr, ptr %18, align 8, !tbaa !184
  %20 = load ptr, ptr %6, align 8, !tbaa !8
  %21 = load ptr, ptr %7, align 8, !tbaa !53
  %22 = load i32, ptr %8, align 4, !tbaa !4
  %23 = load ptr, ptr %6, align 8, !tbaa !8
  %24 = getelementptr inbounds nuw %struct.nghttp2_session, ptr %23, i32 0, i32 12
  %25 = load ptr, ptr %24, align 8, !tbaa !92
  %26 = call i32 %19(ptr noundef %20, ptr noundef %21, i32 noundef %22, ptr noundef %25)
  %27 = icmp ne i32 %26, 0
  br i1 %27, label %28, label %29

28:                                               ; preds = %15
  store i32 -902, ptr %5, align 4
  br label %36

29:                                               ; preds = %15
  br label %30

30:                                               ; preds = %29, %4
  %31 = load ptr, ptr %6, align 8, !tbaa !8
  %32 = load i32, ptr %8, align 4, !tbaa !4
  %33 = call i32 @get_error_code_from_lib_error_code(i32 noundef %32)
  %34 = load ptr, ptr %9, align 8, !tbaa !41
  %35 = call i32 @nghttp2_session_terminate_session_with_reason(ptr noundef %31, i32 noundef %33, ptr noundef %34)
  store i32 %35, ptr %5, align 4
  br label %36

36:                                               ; preds = %30, %28
  %37 = load i32, ptr %5, align 4
  ret i32 %37
}

; Function Attrs: nounwind uwtable
define dso_local i32 @nghttp2_session_on_ping_received(ptr noundef %0, ptr noundef %1) #0 {
  %3 = alloca i32, align 4
  %4 = alloca ptr, align 8
  %5 = alloca ptr, align 8
  %6 = alloca i32, align 4
  %7 = alloca i32, align 4
  store ptr %0, ptr %4, align 8, !tbaa !8
  store ptr %1, ptr %5, align 8, !tbaa !53
  call void @llvm.lifetime.start.p0(i64 4, ptr %6) #9
  store i32 0, ptr %6, align 4, !tbaa !4
  %8 = load ptr, ptr %5, align 8, !tbaa !53
  %9 = getelementptr inbounds nuw %struct.nghttp2_frame_hd, ptr %8, i32 0, i32 1
  %10 = load i32, ptr %9, align 8, !tbaa !115
  %11 = icmp ne i32 %10, 0
  br i1 %11, label %12, label %16

12:                                               ; preds = %2
  %13 = load ptr, ptr %4, align 8, !tbaa !8
  %14 = load ptr, ptr %5, align 8, !tbaa !53
  %15 = call i32 @session_handle_invalid_connection(ptr noundef %13, ptr noundef %14, i32 noundef -505, ptr noundef @.str.32)
  store i32 %15, ptr %3, align 4
  store i32 1, ptr %7, align 4
  br label %48

16:                                               ; preds = %2
  %17 = load ptr, ptr %4, align 8, !tbaa !8
  %18 = getelementptr inbounds nuw %struct.nghttp2_session, ptr %17, i32 0, i32 45
  %19 = load i32, ptr %18, align 4, !tbaa !76
  %20 = and i32 %19, 8
  %21 = icmp eq i32 %20, 0
  br i1 %21, label %22, label %44

22:                                               ; preds = %16
  %23 = load ptr, ptr %5, align 8, !tbaa !53
  %24 = getelementptr inbounds nuw %struct.nghttp2_frame_hd, ptr %23, i32 0, i32 3
  %25 = load i8, ptr %24, align 1, !tbaa !115
  %26 = zext i8 %25 to i32
  %27 = and i32 %26, 1
  %28 = icmp eq i32 %27, 0
  br i1 %28, label %29, label %44

29:                                               ; preds = %22
  %30 = load ptr, ptr %4, align 8, !tbaa !8
  %31 = call i32 @session_is_closing(ptr noundef %30)
  %32 = icmp ne i32 %31, 0
  br i1 %32, label %44, label %33

33:                                               ; preds = %29
  %34 = load ptr, ptr %4, align 8, !tbaa !8
  %35 = load ptr, ptr %5, align 8, !tbaa !53
  %36 = getelementptr inbounds nuw %struct.nghttp2_ping, ptr %35, i32 0, i32 1
  %37 = getelementptr inbounds [8 x i8], ptr %36, i64 0, i64 0
  %38 = call i32 @nghttp2_session_add_ping(ptr noundef %34, i8 noundef zeroext 1, ptr noundef %37)
  store i32 %38, ptr %6, align 4, !tbaa !4
  %39 = load i32, ptr %6, align 4, !tbaa !4
  %40 = icmp ne i32 %39, 0
  br i1 %40, label %41, label %43

41:                                               ; preds = %33
  %42 = load i32, ptr %6, align 4, !tbaa !4
  store i32 %42, ptr %3, align 4
  store i32 1, ptr %7, align 4
  br label %48

43:                                               ; preds = %33
  br label %44

44:                                               ; preds = %43, %29, %22, %16
  %45 = load ptr, ptr %4, align 8, !tbaa !8
  %46 = load ptr, ptr %5, align 8, !tbaa !53
  %47 = call i32 @session_call_on_frame_received(ptr noundef %45, ptr noundef %46)
  store i32 %47, ptr %3, align 4
  store i32 1, ptr %7, align 4
  br label %48

48:                                               ; preds = %44, %41, %12
  call void @llvm.lifetime.end.p0(i64 4, ptr %6) #9
  %49 = load i32, ptr %3, align 4
  ret i32 %49
}