; Function Attrs: nounwind uwtable
define dso_local i32 @nghttp2_session_on_ping_received(ptr noundef %0, ptr noundef %1) local_unnamed_addr #1 {
  %3 = getelementptr inbounds nuw i8, ptr %1, i64 8
  %4 = load i32, ptr %3, align 8, !tbaa !111
  %.not = icmp eq i32 %4, 0
  br i1 %.not, label %24, label %5

5:                                                ; preds = %2
  %6 = getelementptr inbounds nuw i8, ptr %0, i64 2368
  %7 = load ptr, ptr %6, align 8, !tbaa !190
  %.not.i = icmp eq ptr %7, null
  br i1 %.not.i, label %12, label %8

8:                                                ; preds = %5
  %9 = getelementptr inbounds nuw i8, ptr %0, i64 2568
  %10 = load ptr, ptr %9, align 8, !tbaa !89
  %11 = tail call i32 %7(ptr noundef nonnull %0, ptr noundef nonnull %1, i32 noundef -505, ptr noundef %10) #20
  %.not10.i = icmp eq i32 %11, 0
  br i1 %.not10.i, label %12, label %session_handle_invalid_connection.exit

12:                                               ; preds = %8, %5
  %13 = getelementptr inbounds nuw i8, ptr %0, i64 2845
  %14 = load i8, ptr %13, align 1, !tbaa !4
  %15 = and i8 %14, 1
  %.not.i.i.i = icmp eq i8 %15, 0
  br i1 %.not.i.i.i, label %16, label %session_handle_invalid_connection.exit

16:                                               ; preds = %12
  %17 = getelementptr inbounds nuw i8, ptr %0, i64 2724
  %18 = load i32, ptr %17, align 4, !tbaa !38
  %19 = getelementptr inbounds nuw i8, ptr %0, i64 952
  store i32 15, ptr %19, align 8, !tbaa !39
  %20 = tail call i32 @nghttp2_session_add_goaway(ptr noundef nonnull %0, i32 noundef %18, i32 noundef 1, ptr noundef nonnull readonly @.str.32, i64 noundef 20, i8 noundef zeroext 1)
  %.not17.i.i.i = icmp eq i32 %20, 0
  br i1 %.not17.i.i.i, label %21, label %session_handle_invalid_connection.exit

21:                                               ; preds = %16
  %22 = load i8, ptr %13, align 1, !tbaa !4
  %23 = or i8 %22, 1
  store i8 %23, ptr %13, align 1, !tbaa !4
  br label %session_handle_invalid_connection.exit

24:                                               ; preds = %2
  %25 = getelementptr inbounds nuw i8, ptr %0, i64 2828
  %26 = load i32, ptr %25, align 4, !tbaa !73
  %27 = and i32 %26, 8
  %28 = icmp eq i32 %27, 0
  br i1 %28, label %29, label %51

29:                                               ; preds = %24
  %30 = getelementptr inbounds nuw i8, ptr %1, i64 13
  %31 = load i8, ptr %30, align 1, !tbaa !111
  %32 = and i8 %31, 1
  %33 = icmp eq i8 %32, 0
  br i1 %33, label %34, label %51

34:                                               ; preds = %29
  %35 = tail call fastcc i32 @session_is_closing(ptr noundef nonnull %0)
  %.not13 = icmp eq i32 %35, 0
  br i1 %.not13, label %36, label %51

36:                                               ; preds = %34
  %37 = getelementptr inbounds nuw i8, ptr %1, i64 16
  %38 = getelementptr inbounds nuw i8, ptr %0, i64 2528
  %39 = getelementptr inbounds nuw i8, ptr %0, i64 2680
  %40 = load i64, ptr %39, align 8, !tbaa !168
  %41 = getelementptr inbounds nuw i8, ptr %0, i64 2688
  %42 = load i64, ptr %41, align 8, !tbaa !68
  %.not22.i = icmp ult i64 %40, %42
  br i1 %.not22.i, label %43, label %session_handle_invalid_connection.exit

43:                                               ; preds = %36
  %44 = tail call ptr @nghttp2_mem_malloc(ptr noundef nonnull %38, i64 noundef 152) #20
  %45 = icmp eq ptr %44, null
  br i1 %45, label %session_handle_invalid_connection.exit, label %46

46:                                               ; preds = %43
  tail call void @nghttp2_outbound_item_init(ptr noundef nonnull %44) #20
  tail call void @nghttp2_frame_ping_init(ptr noundef nonnull %44, i8 noundef zeroext 1, ptr noundef nonnull %37) #20
  %47 = tail call i32 @nghttp2_session_add_item(ptr noundef nonnull %0, ptr noundef nonnull %44)
  %.not23.i = icmp eq i32 %47, 0
  br i1 %.not23.i, label %nghttp2_session_add_ping.exit, label %48

48:                                               ; preds = %46
  tail call void @nghttp2_frame_ping_free(ptr noundef nonnull %44) #20
  tail call void @nghttp2_mem_free(ptr noundef nonnull %38, ptr noundef nonnull %44) #20
  br label %session_handle_invalid_connection.exit

nghttp2_session_add_ping.exit:                    ; preds = %46
  %49 = load i64, ptr %39, align 8, !tbaa !168
  %50 = add i64 %49, 1
  store i64 %50, ptr %39, align 8, !tbaa !168
  br label %51

51:                                               ; preds = %nghttp2_session_add_ping.exit, %34, %29, %24
  %52 = getelementptr inbounds nuw i8, ptr %0, i64 2360
  %53 = load ptr, ptr %52, align 8, !tbaa !192
  %.not.i16 = icmp eq ptr %53, null
  br i1 %.not.i16, label %58, label %54

54:                                               ; preds = %51
  %55 = getelementptr inbounds nuw i8, ptr %0, i64 2568
  %56 = load ptr, ptr %55, align 8, !tbaa !89
  %57 = tail call i32 %53(ptr noundef nonnull %0, ptr noundef nonnull %1, ptr noundef %56) #20
  %.not7.i = icmp eq i32 %57, 0
  br i1 %.not7.i, label %58, label %session_handle_invalid_connection.exit

58:                                               ; preds = %54, %51
  br label %session_handle_invalid_connection.exit

session_handle_invalid_connection.exit:           ; preds = %43, %36, %48, %58, %54, %21, %16, %12, %8
  %.0 = phi i32 [ -902, %8 ], [ 0, %21 ], [ 0, %12 ], [ %20, %16 ], [ 0, %58 ], [ -902, %54 ], [ -901, %43 ], [ -904, %36 ], [ %47, %48 ]
  ret i32 %.0
}